target datalayout = "e-m:e-p270:32:32-p271:32:32-p272:64:64-i64:64-i128:128-f80:128-n8:16:32:64-S128"
target triple = "x86_64-unknown-linux-gnu"

%class.aiQuaterniont = type { float, float, float, float }

; Function Attrs: mustprogress nounwind uwtable
define linkonce_odr hidden noundef zeroext i1 @_ZNK13aiQuaterniontIfEeqERKS0_(ptr noundef nonnull align 4 dereferenceable(16) %this, ptr noundef nonnull align 4 dereferenceable(16) %o) #0 comdat align 2 {
entry:
  %this.addr = alloca ptr, align 8
  %o.addr = alloca ptr, align 8
  store ptr %this, ptr %this.addr, align 8
  store ptr %o, ptr %o.addr, align 8
  %this1 = load ptr, ptr %this.addr, align 8
  %x = getelementptr inbounds %class.aiQuaterniont, ptr %this1, i32 0, i32 1
  %0 = load float, ptr %x, align 4
  %1 = load ptr, ptr %o.addr, align 8
  %x2 = getelementptr inbounds %class.aiQuaterniont, ptr %1, i32 0, i32 1
  %2 = load float, ptr %x2, align 4
  %cmp = fcmp oeq float %0, %2
  br i1 %cmp, label %land.lhs.true, label %land.end

land.lhs.true:                                    ; preds = %entry
  %y = getelementptr inbounds %class.aiQuaterniont, ptr %this1, i32 0, i32 2
  %3 = load float, ptr %y, align 4
  %4 = load ptr, ptr %o.addr, align 8
  %y3 = getelementptr inbounds %class.aiQuaterniont, ptr %4, i32 0, i32 2
  %5 = load float, ptr %y3, align 4
  %cmp4 = fcmp oeq float %3, %5
  br i1 %cmp4, label %land.lhs.true5, label %land.end

land.lhs.true5:                                   ; preds = %land.lhs.true
  %z = getelementptr inbounds %class.aiQuaterniont, ptr %this1, i32 0, i32 3
  %6 = load float, ptr %z, align 4
  %7 = load ptr, ptr %o.addr, align 8
  %z6 = getelementptr inbounds %class.aiQuaterniont, ptr %7, i32 0, i32 3
  %8 = load float, ptr %z6, align 4
  %cmp7 = fcmp oeq float %6, %8
  br i1 %cmp7, label %land.rhs, label %land.end

land.rhs:                                         ; preds = %land.lhs.true5
  %w = getelementptr inbounds %class.aiQuaterniont, ptr %this1, i32 0, i32 0
  %9 = load float, ptr %w, align 4
  %10 = load ptr, ptr %o.addr, align 8
  %w8 = getelementptr inbounds %class.aiQuaterniont, ptr %10, i32 0, i32 0
  %11 = load float, ptr %w8, align 4
  %cmp9 = fcmp oeq float %9, %11
  br label %land.end

land.end:                                         ; preds = %land.rhs, %land.lhs.true5, %land.lhs.true, %entry
  %12 = phi i1 [ false, %land.lhs.true5 ], [ false, %land.lhs.true ], [ false, %entry ], [ %cmp9, %land.rhs ]
  ret i1 %12
}

; Function Attrs: mustprogress uwtable
define i32 @aiQuaternionAreEqual(ptr noundef %a, ptr noundef %b) #5 {
entry:
  %a.addr = alloca ptr, align 8
  %b.addr = alloca ptr, align 8
  store ptr %a, ptr %a.addr, align 8
  store ptr %b, ptr %b.addr, align 8
  %0 = load ptr, ptr %a.addr, align 8
  %1 = load ptr, ptr %b.addr, align 8
  %call = call noundef zeroext i1 @_ZNK13aiQuaterniontIfEeqERKS0_(ptr noundef nonnull align 4 dereferenceable(16) %0, ptr noundef nonnull align 4 dereferenceable(16) %1)
  %conv = zext i1 %call to i32
  ret i32 %conv
}