; Function Attrs: mustprogress nofree norecurse nosync nounwind willreturn memory(argmem: read) uwtable
define i32 @aiQuaternionAreEqual(ptr nocapture noundef readonly %a, ptr nocapture noundef readonly %b) local_unnamed_addr #15 {
entry:
  %x.i = getelementptr inbounds i8, ptr %a, i64 4
  %0 = load float, ptr %x.i, align 4
  %x2.i = getelementptr inbounds i8, ptr %b, i64 4
  %1 = load float, ptr %x2.i, align 4
  %cmp.i = fcmp oeq float %0, %1
  br i1 %cmp.i, label %land.lhs.true.i, label %_ZNK13aiQuaterniontIfEeqERKS0_.exit

land.lhs.true.i:                                  ; preds = %entry
  %y.i = getelementptr inbounds i8, ptr %a, i64 8
  %2 = load float, ptr %y.i, align 4
  %y3.i = getelementptr inbounds i8, ptr %b, i64 8
  %3 = load float, ptr %y3.i, align 4
  %cmp4.i = fcmp oeq float %2, %3
  br i1 %cmp4.i, label %land.lhs.true5.i, label %_ZNK13aiQuaterniontIfEeqERKS0_.exit

land.lhs.true5.i:                                 ; preds = %land.lhs.true.i
  %z.i = getelementptr inbounds i8, ptr %a, i64 12
  %4 = load float, ptr %z.i, align 4
  %z6.i = getelementptr inbounds i8, ptr %b, i64 12
  %5 = load float, ptr %z6.i, align 4
  %cmp7.i = fcmp oeq float %4, %5
  br i1 %cmp7.i, label %land.rhs.i, label %_ZNK13aiQuaterniontIfEeqERKS0_.exit

land.rhs.i:                                       ; preds = %land.lhs.true5.i
  %6 = load float, ptr %a, align 4
  %7 = load float, ptr %b, align 4
  %cmp9.i = fcmp oeq float %6, %7
  %8 = zext i1 %cmp9.i to i32
  br label %_ZNK13aiQuaterniontIfEeqERKS0_.exit

_ZNK13aiQuaterniontIfEeqERKS0_.exit:              ; preds = %entry, %land.lhs.true.i, %land.lhs.true5.i, %land.rhs.i
  %conv = phi i32 [ 0, %land.lhs.true5.i ], [ 0, %land.lhs.true.i ], [ 0, %entry ], [ %8, %land.rhs.i ]
  ret i32 %conv
}